target datalayout = "e-m:e-p270:32:32-p271:32:32-p272:64:64-i64:64-i128:128-f80:128-n8:16:32:64-S128"
target triple = "x86_64-pc-linux-gnu"

%struct.uv__io_s = type { ptr, [2 x ptr], [2 x ptr], i32, i32, i32 }
%struct.sockaddr = type { i16, [14 x i8] }
%struct.uv_tcp_s = type { ptr, ptr, i32, ptr, [2 x ptr], %union.anon.0, ptr, i32, i64, ptr, ptr, ptr, ptr, %struct.uv__io_s, [2 x ptr], [2 x ptr], ptr, i32, i32, ptr }
%union.anon.0 = type { [4 x ptr] }

; Function Attrs: nounwind uwtable
define dso_local i32 @uv_tcp_bind(ptr noundef %0, ptr noundef %1, i32 noundef %2) #0 {
  %4 = alloca i32, align 4
  %5 = alloca ptr, align 8
  %6 = alloca ptr, align 8
  %7 = alloca i32, align 4
  %8 = alloca i32, align 4
  %9 = alloca i32, align 4
  store ptr %0, ptr %5, align 8, !tbaa !42
  store ptr %1, ptr %6, align 8, !tbaa !38
  store i32 %2, ptr %7, align 4, !tbaa !15
  call void @llvm.lifetime.start.p0(i64 4, ptr %8) #13
  %10 = load ptr, ptr %5, align 8, !tbaa !42
  %11 = getelementptr inbounds nuw %struct.uv_tcp_s, ptr %10, i32 0, i32 2
  %12 = load i32, ptr %11, align 8, !tbaa !44
  %13 = icmp ne i32 %12, 12
  br i1 %13, label %14, label %15

14:                                               ; preds = %3
  store i32 -22, ptr %4, align 4
  store i32 1, ptr %9, align 4
  br label %44

15:                                               ; preds = %3
  %16 = load ptr, ptr %5, align 8, !tbaa !42
  %17 = getelementptr inbounds nuw %struct.uv_tcp_s, ptr %16, i32 0, i32 7
  %18 = load i32, ptr %17, align 8, !tbaa !51
  %19 = and i32 %18, 3
  %20 = icmp ne i32 %19, 0
  br i1 %20, label %21, label %22

21:                                               ; preds = %15
  store i32 -22, ptr %4, align 4
  store i32 1, ptr %9, align 4
  br label %44

22:                                               ; preds = %15
  %23 = load ptr, ptr %6, align 8, !tbaa !38
  %24 = getelementptr inbounds nuw %struct.sockaddr, ptr %23, i32 0, i32 0
  %25 = load i16, ptr %24, align 2, !tbaa !40
  %26 = zext i16 %25 to i32
  %27 = icmp eq i32 %26, 2
  br i1 %27, label %28, label %29

28:                                               ; preds = %22
  store i32 16, ptr %8, align 4, !tbaa !15
  br label %38

29:                                               ; preds = %22
  %30 = load ptr, ptr %6, align 8, !tbaa !38
  %31 = getelementptr inbounds nuw %struct.sockaddr, ptr %30, i32 0, i32 0
  %32 = load i16, ptr %31, align 2, !tbaa !40
  %33 = zext i16 %32 to i32
  %34 = icmp eq i32 %33, 10
  br i1 %34, label %35, label %36

35:                                               ; preds = %29
  store i32 28, ptr %8, align 4, !tbaa !15
  br label %37

36:                                               ; preds = %29
  store i32 -22, ptr %4, align 4
  store i32 1, ptr %9, align 4
  br label %44

37:                                               ; preds = %35
  br label %38

38:                                               ; preds = %37, %28
  %39 = load ptr, ptr %5, align 8, !tbaa !42
  %40 = load ptr, ptr %6, align 8, !tbaa !38
  %41 = load i32, ptr %8, align 4, !tbaa !15
  %42 = load i32, ptr %7, align 4, !tbaa !15
  %43 = call i32 @uv__tcp_bind(ptr noundef %39, ptr noundef %40, i32 noundef %41, i32 noundef %42)
  store i32 %43, ptr %4, align 4
  store i32 1, ptr %9, align 4
  br label %44

44:                                               ; preds = %38, %36, %21, %14
  call void @llvm.lifetime.end.p0(i64 4, ptr %8) #13
  %45 = load i32, ptr %4, align 4
  ret i32 %45
}