; Function Attrs: nounwind uwtable
define dso_local i32 @uv_tcp_bind(ptr noundef %0, ptr noundef %1, i32 noundef %2) local_unnamed_addr #0 {
  %4 = getelementptr inbounds nuw i8, ptr %0, i64 16
  %5 = load i32, ptr %4, align 8, !tbaa !27
  %.not = icmp eq i32 %5, 12
  br i1 %.not, label %6, label %15

6:                                                ; preds = %3
  %7 = getelementptr inbounds nuw i8, ptr %0, i64 88
  %8 = load i32, ptr %7, align 8, !tbaa !35
  %9 = and i32 %8, 3
  %.not10 = icmp eq i32 %9, 0
  br i1 %.not10, label %10, label %15

10:                                               ; preds = %6
  %11 = load i16, ptr %1, align 2, !tbaa !25
  switch i16 %11, label %15 [
    i16 2, label %13
    i16 10, label %12
  ]

12:                                               ; preds = %10
  br label %13

13:                                               ; preds = %10, %12
  %.0 = phi i32 [ 28, %12 ], [ 16, %10 ]
  %14 = tail call i32 @uv__tcp_bind(ptr noundef nonnull %0, ptr noundef nonnull %1, i32 noundef %.0, i32 noundef %2) #26
  br label %15

15:                                               ; preds = %10, %6, %3, %13
  %.08 = phi i32 [ %14, %13 ], [ -22, %3 ], [ -22, %6 ], [ -22, %10 ]
  ret i32 %.08
}